target datalayout = "e-m:e-p270:32:32-p271:32:32-p272:64:64-i64:64-i128:128-f80:128-n8:16:32:64-S128"
target triple = "x86_64-pc-linux-gnu"

%class.DebugInformationRecorder = type <{ ptr, i8, [7 x i8], ptr, ptr, ptr, ptr, ptr, ptr, i32, i32, i32, [4 x i8] }>
%class.PcDesc = type { i32, i32, i32, i32 }

; Function Attrs: mustprogress nounwind uwtable
define hidden void @_ZN24DebugInformationRecorder17add_new_pc_offsetEi(ptr noundef nonnull align 8 dereferenceable(76) %0, i32 noundef %1) #1 align 2 {
  %3 = alloca ptr, align 8
  %4 = alloca i32, align 4
  %5 = alloca i32, align 4
  %6 = alloca ptr, align 8
  %7 = alloca i32, align 4
  %8 = alloca %class.PcDesc, align 4
  store ptr %0, ptr %3, align 8
  store i32 %1, ptr %4, align 4
  %9 = load ptr, ptr %3, align 8
  %10 = getelementptr inbounds %class.DebugInformationRecorder, ptr %9, i32 0, i32 10
  %11 = load i32, ptr %10, align 4
  %12 = getelementptr inbounds %class.DebugInformationRecorder, ptr %9, i32 0, i32 9
  %13 = load i32, ptr %12, align 8
  %14 = icmp eq i32 %11, %13
  br i1 %14, label %15, label %46

15:                                               ; preds = %2
  %16 = getelementptr inbounds %class.DebugInformationRecorder, ptr %9, i32 0, i32 9
  %17 = load i32, ptr %16, align 8
  %18 = mul nsw i32 %17, 2
  store i32 %18, ptr %5, align 4
  %19 = load i32, ptr %5, align 4
  %20 = sext i32 %19 to i64
  %21 = mul i64 %20, 16
  %22 = call noundef ptr @_Z23resource_allocate_bytesmN17AllocFailStrategy13AllocFailEnumE(i64 noundef %21, i32 noundef 0)
  store ptr %22, ptr %6, align 8
  store i32 0, ptr %7, align 4
  br label %23

23:                                               ; preds = %38, %15
  %24 = load i32, ptr %7, align 4
  %25 = getelementptr inbounds %class.DebugInformationRecorder, ptr %9, i32 0, i32 10
  %26 = load i32, ptr %25, align 4
  %27 = icmp slt i32 %24, %26
  br i1 %27, label %28, label %41

28:                                               ; preds = %23
  %29 = getelementptr inbounds %class.DebugInformationRecorder, ptr %9, i32 0, i32 8
  %30 = load ptr, ptr %29, align 8
  %31 = load i32, ptr %7, align 4
  %32 = sext i32 %31 to i64
  %33 = getelementptr inbounds %class.PcDesc, ptr %30, i64 %32
  %34 = load ptr, ptr %6, align 8
  %35 = load i32, ptr %7, align 4
  %36 = sext i32 %35 to i64
  %37 = getelementptr inbounds %class.PcDesc, ptr %34, i64 %36
  call void @llvm.memcpy.p0.p0.i64(ptr align 4 %37, ptr align 4 %33, i64 16, i1 false)
  br label %38

38:                                               ; preds = %28
  %39 = load i32, ptr %7, align 4
  %40 = add nsw i32 %39, 1
  store i32 %40, ptr %7, align 4
  br label %23, !llvm.loop !6

41:                                               ; preds = %23
  %42 = load i32, ptr %5, align 4
  %43 = getelementptr inbounds %class.DebugInformationRecorder, ptr %9, i32 0, i32 9
  store i32 %42, ptr %43, align 8
  %44 = load ptr, ptr %6, align 8
  %45 = getelementptr inbounds %class.DebugInformationRecorder, ptr %9, i32 0, i32 8
  store ptr %44, ptr %45, align 8
  br label %46

46:                                               ; preds = %41, %2
  %47 = load i32, ptr %4, align 4
  call void @_ZN6PcDescC1Eiii(ptr noundef nonnull align 4 dereferenceable(16) %8, i32 noundef %47, i32 noundef 0, i32 noundef 0)
  %48 = getelementptr inbounds %class.DebugInformationRecorder, ptr %9, i32 0, i32 8
  %49 = load ptr, ptr %48, align 8
  %50 = getelementptr inbounds %class.DebugInformationRecorder, ptr %9, i32 0, i32 10
  %51 = load i32, ptr %50, align 4
  %52 = add nsw i32 %51, 1
  store i32 %52, ptr %50, align 4
  %53 = sext i32 %51 to i64
  %54 = getelementptr inbounds %class.PcDesc, ptr %49, i64 %53
  call void @llvm.memcpy.p0.p0.i64(ptr align 4 %54, ptr align 4 %8, i64 16, i1 false)
  ret void
}

; Function Attrs: mustprogress nounwind uwtable
define hidden void @_ZN24DebugInformationRecorder10add_oopmapEiP6OopMap(ptr noundef nonnull align 8 dereferenceable(76) %0, i32 noundef %1, ptr noundef %2) #1 align 2 {
  %4 = alloca ptr, align 8
  %5 = alloca i32, align 4
  %6 = alloca ptr, align 8
  store ptr %0, ptr %4, align 8
  store i32 %1, ptr %5, align 4
  store ptr %2, ptr %6, align 8
  %7 = load ptr, ptr %4, align 8
  %8 = getelementptr inbounds %class.DebugInformationRecorder, ptr %7, i32 0, i32 0
  %9 = load ptr, ptr %8, align 8
  %10 = load i32, ptr %5, align 4
  %11 = load ptr, ptr %6, align 8
  %12 = call noundef i32 @_ZN9OopMapSet10add_gc_mapEiP6OopMap(ptr noundef nonnull align 8 dereferenceable(24) %9, i32 noundef %10, ptr noundef %11)
  ret void
}

; Function Attrs: mustprogress nounwind uwtable
define hidden void @_ZN24DebugInformationRecorder13add_safepointEiP6OopMap(ptr noundef nonnull align 8 dereferenceable(76) %0, i32 noundef %1, ptr noundef %2) #1 align 2 {
  %4 = alloca ptr, align 8
  %5 = alloca i32, align 4
  %6 = alloca ptr, align 8
  store ptr %0, ptr %4, align 8
  store i32 %1, ptr %5, align 4
  store ptr %2, ptr %6, align 8
  %7 = load ptr, ptr %4, align 8
  %8 = load i32, ptr %5, align 4
  %9 = load ptr, ptr %6, align 8
  call void @_ZN24DebugInformationRecorder10add_oopmapEiP6OopMap(ptr noundef nonnull align 8 dereferenceable(76) %7, i32 noundef %8, ptr noundef %9)
  %10 = load i32, ptr %5, align 4
  call void @_ZN24DebugInformationRecorder17add_new_pc_offsetEi(ptr noundef nonnull align 8 dereferenceable(76) %7, i32 noundef %10)
  ret void
}