; Function Attrs: mustprogress nounwind uwtable
define hidden void @_ZN24DebugInformationRecorder13add_safepointEiP6OopMap(ptr nocapture noundef nonnull align 8 dereferenceable(76) %0, i32 noundef %1, ptr noundef %2) local_unnamed_addr #0 align 2 {
  %4 = alloca %class.PcDesc, align 4
  %5 = load ptr, ptr %0, align 8
  %6 = tail call noundef i32 @_ZN9OopMapSet10add_gc_mapEiP6OopMap(ptr noundef nonnull align 8 dereferenceable(24) %5, i32 noundef %1, ptr noundef %2) #12
  call void @llvm.lifetime.start.p0(i64 16, ptr nonnull %4)
  %7 = getelementptr inbounds i8, ptr %0, i64 68
  %8 = load i32, ptr %7, align 4
  %9 = getelementptr inbounds i8, ptr %0, i64 64
  %10 = load i32, ptr %9, align 8
  %11 = icmp eq i32 %8, %10
  br i1 %11, label %12, label %_ZN24DebugInformationRecorder17add_new_pc_offsetEi.exit

12:                                               ; preds = %3
  %13 = shl nsw i32 %8, 1
  %14 = sext i32 %13 to i64
  %15 = shl nsw i64 %14, 4
  %16 = tail call noundef ptr @_Z23resource_allocate_bytesmN17AllocFailStrategy13AllocFailEnumE(i64 noundef %15, i32 noundef 0) #12
  %17 = load i32, ptr %7, align 4
  %18 = icmp sgt i32 %17, 0
  br i1 %18, label %.lr.ph.i, label %._crit_edge.i

.lr.ph.i:                                         ; preds = %12
  %19 = getelementptr inbounds i8, ptr %0, i64 56
  br label %20

20:                                               ; preds = %20, %.lr.ph.i
  %indvars.iv.i = phi i64 [ 0, %.lr.ph.i ], [ %indvars.iv.next.i, %20 ]
  %21 = load ptr, ptr %19, align 8
  %22 = getelementptr inbounds %class.PcDesc, ptr %21, i64 %indvars.iv.i
  %23 = getelementptr inbounds %class.PcDesc, ptr %16, i64 %indvars.iv.i
  tail call void @llvm.memcpy.p0.p0.i64(ptr noundef nonnull align 4 dereferenceable(16) %23, ptr noundef nonnull align 4 dereferenceable(16) %22, i64 16, i1 false)
  %indvars.iv.next.i = add nuw nsw i64 %indvars.iv.i, 1
  %24 = load i32, ptr %7, align 4
  %25 = sext i32 %24 to i64
  %26 = icmp slt i64 %indvars.iv.next.i, %25
  br i1 %26, label %20, label %._crit_edge.i, !llvm.loop !6

._crit_edge.i:                                    ; preds = %20, %12
  store i32 %13, ptr %9, align 8
  %27 = getelementptr inbounds i8, ptr %0, i64 56
  store ptr %16, ptr %27, align 8
  br label %_ZN24DebugInformationRecorder17add_new_pc_offsetEi.exit

_ZN24DebugInformationRecorder17add_new_pc_offsetEi.exit: ; preds = %3, %._crit_edge.i
  call void @_ZN6PcDescC1Eiii(ptr noundef nonnull align 4 dereferenceable(16) %4, i32 noundef %1, i32 noundef 0, i32 noundef 0) #12
  %28 = getelementptr inbounds i8, ptr %0, i64 56
  %29 = load ptr, ptr %28, align 8
  %30 = load i32, ptr %7, align 4
  %31 = add nsw i32 %30, 1
  store i32 %31, ptr %7, align 4
  %32 = sext i32 %30 to i64
  %33 = getelementptr inbounds %class.PcDesc, ptr %29, i64 %32
  call void @llvm.memcpy.p0.p0.i64(ptr noundef nonnull align 4 dereferenceable(16) %33, ptr noundef nonnull align 4 dereferenceable(16) %4, i64 16, i1 false)
  call void @llvm.lifetime.end.p0(i64 16, ptr nonnull %4)
  ret void
}